; Function Attrs: null_pointer_is_valid sspstrong uwtable
define internal i32 @dissect_InternalTraceInformationElement_PDU(ptr noundef %0, ptr noundef %1, ptr noundef %2, ptr readnone captures(none) %3) #0 {
  %5 = alloca %struct._asn1_ctx_t, align 8
  call void @llvm.lifetime.start.p0(i64 208, ptr nonnull %5) #5
  call void @asn1_ctx_init(ptr noundef nonnull %5, i32 noundef 0, i1 noundef zeroext true, ptr noundef %1)
  %6 = load i32, ptr @hf_p1_InternalTraceInformationElement_PDU, align 4
  %7 = getelementptr inbounds nuw i8, ptr %5, i64 136
  %8 = load ptr, ptr %7, align 8
  %9 = icmp eq ptr %8, null
  br i1 %9, label %10, label %set_do_address.exit.i

10:                                               ; preds = %4
  %11 = getelementptr inbounds nuw i8, ptr %5, i64 16
  %12 = load ptr, ptr %11, align 8
  %13 = getelementptr inbounds nuw i8, ptr %12, i64 408
  %14 = load ptr, ptr %13, align 8
  %15 = call noalias dereferenceable_or_null(32) ptr @wmem_alloc0(ptr noundef %14, i64 noundef 32) #6
  store ptr %15, ptr %7, align 8
  br label %set_do_address.exit.i

set_do_address.exit.i:                            ; preds = %10, %4
  %16 = phi ptr [ %15, %10 ], [ %8, %4 ]
  store i8 1, ptr %16, align 8
  %17 = load i32, ptr @ett_p1_InternalTraceInformationElement, align 4
  %18 = call i32 @dissect_ber_sequence(i1 noundef zeroext false, ptr noundef nonnull %5, ptr noundef %2, ptr noundef %0, i32 noundef 0, ptr noundef nonnull @InternalTraceInformationElement_sequence, i32 noundef %6, i32 noundef %17)
  %19 = load ptr, ptr %7, align 8
  %20 = icmp eq ptr %19, null
  br i1 %20, label %21, label %dissect_p1_InternalTraceInformationElement.exit

21:                                               ; preds = %set_do_address.exit.i
  %22 = getelementptr inbounds nuw i8, ptr %5, i64 16
  %23 = load ptr, ptr %22, align 8
  %24 = getelementptr inbounds nuw i8, ptr %23, i64 408
  %25 = load ptr, ptr %24, align 8
  %26 = call noalias dereferenceable_or_null(32) ptr @wmem_alloc0(ptr noundef %25, i64 noundef 32) #6
  br label %dissect_p1_InternalTraceInformationElement.exit

dissect_p1_InternalTraceInformationElement.exit:  ; preds = %set_do_address.exit.i, %21
  %27 = phi ptr [ %26, %21 ], [ %19, %set_do_address.exit.i ]
  store i8 0, ptr %27, align 8
  call void @llvm.lifetime.end.p0(i64 208, ptr nonnull %5) #5
  ret i32 %18
}